
Allocating common symbols
Common symbol       size              file

__stm32_tick        0x4               obj/exceptions.o

Memory Configuration

Name             Origin             Length             Attributes
RAM              0x0000000020000000 0x0000000000030000 xrw
FLASH            0x0000000008000000 0x0000000000100000 xr
*default*        0x0000000000000000 0xffffffffffffffff

Linker script and memory map

LOAD obj/stm32f4xx_gpio.o
LOAD obj/low_level_init.o
LOAD obj/exceptions.o
LOAD obj/stm32f4xx_rcc.o
LOAD obj/misc.o
LOAD obj/main.o
LOAD obj/stm32f4xx_tim.o
LOAD obj/startup.o
                0x0000000020020000                _estack = 0x20020000

.isr_vector     0x0000000020000000      0x188 load address 0x0000000008000000
                0x0000000020000000                . = ALIGN (0x200)
                0x0000000008000000                __isr_vector_load = LOADADDR (.isr_vector)
                0x0000000020000000                __isr_vector_start = .
 *(.isr_vector)
 .isr_vector    0x0000000020000000      0x188 obj/startup.o
                0x0000000020000000                g_pfnVectors
                0x0000000020000188                . = ALIGN (0x4)
                0x0000000020000188                __isr_vector_end = .

.text           0x0000000008000188     0x3002
 *(.text)
 .text          0x0000000008000188      0x48c obj/stm32f4xx_gpio.o
                0x0000000008000188                GPIO_DeInit
                0x00000000080002a8                GPIO_Init
                0x00000000080003c4                GPIO_StructInit
                0x00000000080003f8                GPIO_PinLockConfig
                0x000000000800043c                GPIO_ReadInputDataBit
                0x0000000008000470                GPIO_ReadInputData
                0x000000000800048c                GPIO_ReadOutputDataBit
                0x00000000080004c0                GPIO_ReadOutputData
                0x00000000080004dc                GPIO_SetBits
                0x00000000080004f8                GPIO_ResetBits
                0x0000000008000514                GPIO_WriteBit
                0x0000000008000544                GPIO_Write
                0x0000000008000560                GPIO_ToggleBits
                0x0000000008000584                GPIO_PinAFConfig
 .text          0x0000000008000614      0x194 obj/low_level_init.o
                0x0000000008000614                low_level_init
 .text          0x00000000080007a8       0x6c obj/exceptions.o
                0x00000000080007a8                NMI_Handler
                0x00000000080007b4                HardFault_Handler
                0x00000000080007bc                MemManage_Handler
                0x00000000080007c4                BusFault_Handler
                0x00000000080007cc                UsageFault_Handler
                0x00000000080007d4                SVC_Handler
                0x00000000080007e0                DebugMon_Handler
                0x00000000080007ec                PendSV_Handler
                0x00000000080007f8                SysTick_Handler
 .text          0x0000000008000814      0xa80 obj/stm32f4xx_rcc.o
                0x0000000008000814                RCC_DeInit
                0x0000000008000864                RCC_HSEConfig
                0x0000000008000888                RCC_WaitForHSEStartUp
                0x00000000080008d8                RCC_AdjustHSICalibrationValue
                0x0000000008000914                RCC_HSICmd
                0x0000000008000934                RCC_LSEConfig
                0x0000000008000974                RCC_LSICmd
                0x0000000008000994                RCC_PLLConfig
                0x00000000080009d0                RCC_PLLCmd
                0x00000000080009f0                RCC_PLLI2SConfig
                0x0000000008000a18                RCC_PLLI2SCmd
                0x0000000008000a38                RCC_ClockSecuritySystemCmd
                0x0000000008000a58                RCC_MCO1Config
                0x0000000008000a94                RCC_MCO2Config
                0x0000000008000ad0                RCC_SYSCLKConfig
                0x0000000008000b08                RCC_GetSYSCLKSource
                0x0000000008000b28                RCC_HCLKConfig
                0x0000000008000b60                RCC_PCLK1Config
                0x0000000008000b98                RCC_PCLK2Config
                0x0000000008000bd0                RCC_GetClocksFreq
                0x0000000008000d24                RCC_RTCCLKConfig
                0x0000000008000d80                RCC_RTCCLKCmd
                0x0000000008000da0                RCC_BackupResetCmd
                0x0000000008000dc0                RCC_I2SCLKConfig
                0x0000000008000ddc                RCC_AHB1PeriphClockCmd
                0x0000000008000e18                RCC_AHB2PeriphClockCmd
                0x0000000008000e54                RCC_AHB3PeriphClockCmd
                0x0000000008000e90                RCC_APB1PeriphClockCmd
                0x0000000008000ecc                RCC_APB2PeriphClockCmd
                0x0000000008000f08                RCC_AHB1PeriphResetCmd
                0x0000000008000f44                RCC_AHB2PeriphResetCmd
                0x0000000008000f80                RCC_AHB3PeriphResetCmd
                0x0000000008000fbc                RCC_APB1PeriphResetCmd
                0x0000000008000ff8                RCC_APB2PeriphResetCmd
                0x0000000008001034                RCC_AHB1PeriphClockLPModeCmd
                0x0000000008001070                RCC_AHB2PeriphClockLPModeCmd
                0x00000000080010ac                RCC_AHB3PeriphClockLPModeCmd
                0x00000000080010e8                RCC_APB1PeriphClockLPModeCmd
                0x0000000008001124                RCC_APB2PeriphClockLPModeCmd
                0x0000000008001160                RCC_ITConfig
                0x00000000080011ac                RCC_GetFlagStatus
                0x0000000008001220                RCC_ClearFlag
                0x000000000800123c                RCC_GetITStatus
                0x0000000008001274                RCC_ClearITPendingBit
 .text          0x0000000008001294      0x188 obj/misc.o
                0x0000000008001294                NVIC_PriorityGroupConfig
                0x00000000080012b8                NVIC_Init
                0x0000000008001378                NVIC_SetVectorTable
                0x00000000080013a4                NVIC_SystemLPConfig
                0x00000000080013e4                SysTick_CLKSourceConfig
 .text          0x000000000800141c      0x114 obj/main.o
                0x000000000800141c                TIM2_IRQHandler
                0x000000000800144c                main
                0x0000000008001480                TIM2_Config
                0x00000000080014e4                task1
                0x00000000080014f0                task2
                0x00000000080014fc                task3
                0x0000000008001508                delay
 .text          0x0000000008001530     0x1bf0 obj/stm32f4xx_tim.o
                0x0000000008001530                TIM_DeInit
                0x00000000080016ec                TIM_TimeBaseInit
                0x00000000080017c0                TIM_TimeBaseStructInit
                0x00000000080017f4                TIM_PrescalerConfig
                0x000000000800181c                TIM_CounterModeConfig
                0x0000000008001854                TIM_SetCounter
                0x0000000008001870                TIM_SetAutoreload
                0x000000000800188c                TIM_GetCounter
                0x00000000080018a4                TIM_GetPrescaler
                0x00000000080018c0                TIM_UpdateDisableConfig
                0x0000000008001900                TIM_UpdateRequestConfig
                0x0000000008001940                TIM_ARRPreloadConfig
                0x0000000008001980                TIM_SelectOnePulseMode
                0x00000000080019b8                TIM_SetClockDivision
                0x00000000080019f0                TIM_Cmd
                0x0000000008001a30                TIM_OC1Init
                0x0000000008001b24                TIM_OC2Init
                0x0000000008001c34                TIM_OC3Init
                0x0000000008001d40                TIM_OC4Init
                0x0000000008001e0c                TIM_OCStructInit
                0x0000000008001e50                TIM_SelectOCxM
                0x0000000008001f00                TIM_SetCompare1
                0x0000000008001f1c                TIM_SetCompare2
                0x0000000008001f38                TIM_SetCompare3
                0x0000000008001f54                TIM_SetCompare4
                0x0000000008001f70                TIM_ForcedOC1Config
                0x0000000008001fa8                TIM_ForcedOC2Config
                0x0000000008001fe4                TIM_ForcedOC3Config
                0x000000000800201c                TIM_ForcedOC4Config
                0x0000000008002058                TIM_OC1PreloadConfig
                0x0000000008002090                TIM_OC2PreloadConfig
                0x00000000080020cc                TIM_OC3PreloadConfig
                0x0000000008002104                TIM_OC4PreloadConfig
                0x0000000008002140                TIM_OC1FastConfig
                0x0000000008002178                TIM_OC2FastConfig
                0x00000000080021b4                TIM_OC3FastConfig
                0x00000000080021ec                TIM_OC4FastConfig
                0x0000000008002228                TIM_ClearOC1Ref
                0x0000000008002260                TIM_ClearOC2Ref
                0x000000000800229c                TIM_ClearOC3Ref
                0x00000000080022d4                TIM_ClearOC4Ref
                0x0000000008002310                TIM_OC1PolarityConfig
                0x0000000008002348                TIM_OC1NPolarityConfig
                0x0000000008002380                TIM_OC2PolarityConfig
                0x00000000080023bc                TIM_OC2NPolarityConfig
                0x00000000080023f8                TIM_OC3PolarityConfig
                0x0000000008002434                TIM_OC3NPolarityConfig
                0x0000000008002470                TIM_OC4PolarityConfig
                0x00000000080024ac                TIM_CCxCmd
                0x0000000008002500                TIM_CCxNCmd
                0x0000000008002554                TIM_ICInit
                0x00000000080025fc                TIM_ICStructInit
                0x000000000800262c                TIM_PWMIConfig
                0x00000000080026e4                TIM_GetCapture1
                0x00000000080026fc                TIM_GetCapture2
                0x0000000008002714                TIM_GetCapture3
                0x000000000800272c                TIM_GetCapture4
                0x0000000008002744                TIM_SetIC1Prescaler
                0x000000000800277c                TIM_SetIC2Prescaler
                0x00000000080027b8                TIM_SetIC3Prescaler
                0x00000000080027f0                TIM_SetIC4Prescaler
                0x000000000800282c                TIM_BDTRConfig
                0x000000000800287c                TIM_BDTRStructInit
                0x00000000080028b8                TIM_CtrlPWMOutputs
                0x0000000008002904                TIM_SelectCOM
                0x0000000008002944                TIM_CCPreloadControl
                0x0000000008002984                TIM_ITConfig
                0x00000000080029cc                TIM_GenerateEvent
                0x00000000080029e8                TIM_GetFlagStatus
                0x0000000008002a20                TIM_ClearFlag
                0x0000000008002a40                TIM_GetITStatus
                0x0000000008002a94                TIM_ClearITPendingBit
                0x0000000008002ab4                TIM_DMAConfig
                0x0000000008002adc                TIM_DMACmd
                0x0000000008002b24                TIM_SelectCCDMA
                0x0000000008002b64                TIM_InternalClockConfig
                0x0000000008002b88                TIM_ITRxExternalClockConfig
                0x0000000008002bb4                TIM_TIxExternalClockConfig
                0x0000000008002c14                TIM_ETRClockMode1Config
                0x0000000008002c70                TIM_ETRClockMode2Config
                0x0000000008002cac                TIM_SelectInputTrigger
                0x0000000008002ce4                TIM_SelectOutputTrigger
                0x0000000008002d1c                TIM_SelectSlaveMode
                0x0000000008002d54                TIM_SelectMasterSlaveMode
                0x0000000008002d8c                TIM_ETRConfig
                0x0000000008002de0                TIM_EncoderInterfaceConfig
                0x0000000008002e78                TIM_SelectHallSensor
                0x0000000008002eb8                TIM_RemapConfig
 .text          0x0000000008003120       0x14 obj/startup.o
 *(.text*)
 .text.Reset_Handler
                0x0000000008003134       0x54 obj/startup.o
                0x0000000008003134                Reset_Handler
 .text.Default_Handler
                0x0000000008003188        0x2 obj/startup.o
                0x0000000008003188                RTC_Alarm_IRQHandler
                0x0000000008003188                HASH_RNG_IRQHandler
                0x0000000008003188                EXTI2_IRQHandler
                0x0000000008003188                TIM8_CC_IRQHandler
                0x0000000008003188                TIM1_CC_IRQHandler
                0x0000000008003188                DMA2_Stream5_IRQHandler
                0x0000000008003188                DMA1_Stream5_IRQHandler
                0x0000000008003188                PVD_IRQHandler
                0x0000000008003188                SDIO_IRQHandler
                0x0000000008003188                TAMP_STAMP_IRQHandler
                0x0000000008003188                CAN2_RX1_IRQHandler
                0x0000000008003188                EXTI3_IRQHandler
                0x0000000008003188                TIM8_TRG_COM_TIM14_IRQHandler
                0x0000000008003188                TIM1_UP_TIM10_IRQHandler
                0x0000000008003188                TIM8_UP_TIM13_IRQHandler
                0x0000000008003188                I2C3_ER_IRQHandler
                0x0000000008003188                EXTI0_IRQHandler
                0x0000000008003188                I2C2_EV_IRQHandler
                0x0000000008003188                DMA1_Stream2_IRQHandler
                0x0000000008003188                CAN1_RX0_IRQHandler
                0x0000000008003188                FPU_IRQHandler
                0x0000000008003188                OTG_HS_WKUP_IRQHandler
                0x0000000008003188                CAN2_SCE_IRQHandler
                0x0000000008003188                DMA2_Stream2_IRQHandler
                0x0000000008003188                SPI1_IRQHandler
                0x0000000008003188                TIM6_DAC_IRQHandler
                0x0000000008003188                TIM1_BRK_TIM9_IRQHandler
                0x0000000008003188                DCMI_IRQHandler
                0x0000000008003188                CAN2_RX0_IRQHandler
                0x0000000008003188                DMA2_Stream3_IRQHandler
                0x0000000008003188                USART6_IRQHandler
                0x0000000008003188                USART3_IRQHandler
                0x0000000008003188                CRYP_IRQHandler
                0x0000000008003188                CAN1_RX1_IRQHandler
                0x0000000008003188                UART5_IRQHandler
                0x0000000008003188                DMA2_Stream0_IRQHandler
                0x0000000008003188                TIM4_IRQHandler
                0x0000000008003188                I2C1_EV_IRQHandler
                0x0000000008003188                DMA1_Stream6_IRQHandler
                0x0000000008003188                DMA1_Stream1_IRQHandler
                0x0000000008003188                UART4_IRQHandler
                0x0000000008003188                TIM3_IRQHandler
                0x0000000008003188                RCC_IRQHandler
                0x0000000008003188                TIM8_BRK_TIM12_IRQHandler
                0x0000000008003188                Default_Handler
                0x0000000008003188                EXTI15_10_IRQHandler
                0x0000000008003188                ADC_IRQHandler
                0x0000000008003188                DMA1_Stream7_IRQHandler
                0x0000000008003188                TIM7_IRQHandler
                0x0000000008003188                CAN2_TX_IRQHandler
                0x0000000008003188                TIM5_IRQHandler
                0x0000000008003188                DMA2_Stream7_IRQHandler
                0x0000000008003188                I2C3_EV_IRQHandler
                0x0000000008003188                EXTI9_5_IRQHandler
                0x0000000008003188                RTC_WKUP_IRQHandler
                0x0000000008003188                ETH_WKUP_IRQHandler
                0x0000000008003188                SPI2_IRQHandler
                0x0000000008003188                OTG_HS_EP1_IN_IRQHandler
                0x0000000008003188                DMA1_Stream0_IRQHandler
                0x0000000008003188                CAN1_TX_IRQHandler
                0x0000000008003188                EXTI4_IRQHandler
                0x0000000008003188                FSMC_IRQHandler
                0x0000000008003188                ETH_IRQHandler
                0x0000000008003188                OTG_HS_EP1_OUT_IRQHandler
                0x0000000008003188                WWDG_IRQHandler
                0x0000000008003188                OTG_FS_WKUP_IRQHandler
                0x0000000008003188                TIM1_TRG_COM_TIM11_IRQHandler
                0x0000000008003188                OTG_HS_IRQHandler
                0x0000000008003188                EXTI1_IRQHandler
                0x0000000008003188                USART2_IRQHandler
                0x0000000008003188                I2C2_ER_IRQHandler
                0x0000000008003188                DMA2_Stream1_IRQHandler
                0x0000000008003188                CAN1_SCE_IRQHandler
                0x0000000008003188                FLASH_IRQHandler
                0x0000000008003188                DMA2_Stream4_IRQHandler
                0x0000000008003188                USART1_IRQHandler
                0x0000000008003188                OTG_FS_IRQHandler
                0x0000000008003188                SPI3_IRQHandler
                0x0000000008003188                DMA1_Stream4_IRQHandler
                0x0000000008003188                I2C1_ER_IRQHandler
                0x0000000008003188                DMA2_Stream6_IRQHandler
                0x0000000008003188                DMA1_Stream3_IRQHandler
 *(.rodata)
 *(.rodata*)
                0x000000000800318a                _sidata = LOADADDR (.data)

.glue_7         0x000000000800318c        0x0
 .glue_7        0x000000000800318c        0x0 linker stubs

.glue_7t        0x000000000800318c        0x0
 .glue_7t       0x000000000800318c        0x0 linker stubs

.vfp11_veneer   0x000000000800318c        0x0
 .vfp11_veneer  0x000000000800318c        0x0 linker stubs

.v4_bx          0x000000000800318c        0x0
 .v4_bx         0x000000000800318c        0x0 linker stubs

.iplt           0x000000000800318c        0x0
 .iplt          0x000000000800318c        0x0 obj/stm32f4xx_gpio.o

.rel.dyn        0x000000000800318c        0x0
 .rel.iplt      0x000000000800318c        0x0 obj/stm32f4xx_gpio.o

.data           0x0000000020000188       0x24 load address 0x000000000800318a
                0x0000000020000188                . = ALIGN (0x4)
                0x0000000020000188                _sdata = .
 *(.data)
 .data          0x0000000020000188        0x0 obj/stm32f4xx_gpio.o
 .data          0x0000000020000188       0x14 obj/low_level_init.o
                0x0000000020000188                SystemCoreClock
                0x000000002000018c                AHBPrescTable
 .data          0x000000002000019c        0x0 obj/exceptions.o
 .data          0x000000002000019c       0x10 obj/stm32f4xx_rcc.o
 .data          0x00000000200001ac        0x0 obj/misc.o
 .data          0x00000000200001ac        0x0 obj/main.o
 .data          0x00000000200001ac        0x0 obj/stm32f4xx_tim.o
 .data          0x00000000200001ac        0x0 obj/startup.o
 *(.data*)
                0x00000000200001ac                . = ALIGN (0x4)
                0x00000000200001ac                _edata = .

.igot.plt       0x00000000200001ac        0x0 load address 0x00000000080031ae
 .igot.plt      0x00000000200001ac        0x0 obj/stm32f4xx_gpio.o

.bss            0x00000000200001ac        0x8 load address 0x00000000080031ae
                0x00000000200001ac                . = ALIGN (0x4)
                0x00000000200001ac                _sbss = .
                0x00000000200001ac                __bss_start__ = _sbss
 *(.bss)
 .bss           0x00000000200001ac        0x0 obj/stm32f4xx_gpio.o
 .bss           0x00000000200001ac        0x0 obj/low_level_init.o
 .bss           0x00000000200001ac        0x0 obj/exceptions.o
 .bss           0x00000000200001ac        0x0 obj/stm32f4xx_rcc.o
 .bss           0x00000000200001ac        0x0 obj/misc.o
 .bss           0x00000000200001ac        0x4 obj/main.o
 .bss           0x00000000200001b0        0x0 obj/stm32f4xx_tim.o
 .bss           0x00000000200001b0        0x0 obj/startup.o
 *(.bss*)
 *(COMMON)
 COMMON         0x00000000200001b0        0x4 obj/exceptions.o
                0x00000000200001b0                __stm32_tick
                0x00000000200001b4                . = ALIGN (0x4)
                0x00000000200001b4                _ebss = .
                0x00000000200001b4                __bss_end__ = _ebss
                0x00000000200001b4                _end = .
                [!provide]                        PROVIDE (end, .)
OUTPUT(out/main.elf elf32-littlearm)

.debug_info     0x0000000000000000     0x40f4
 .debug_info    0x0000000000000000      0x5da obj/stm32f4xx_gpio.o
 .debug_info    0x00000000000005da      0x560 obj/low_level_init.o
 .debug_info    0x0000000000000b3a      0x144 obj/exceptions.o
 .debug_info    0x0000000000000c7e      0xc25 obj/stm32f4xx_rcc.o
 .debug_info    0x00000000000018a3      0x520 obj/misc.o
 .debug_info    0x0000000000001dc3      0x676 obj/main.o
 .debug_info    0x0000000000002439     0x1c39 obj/stm32f4xx_tim.o
 .debug_info    0x0000000000004072       0x82 obj/startup.o

.debug_abbrev   0x0000000000000000      0x957
 .debug_abbrev  0x0000000000000000      0x1a5 obj/stm32f4xx_gpio.o
 .debug_abbrev  0x00000000000001a5      0x138 obj/low_level_init.o
 .debug_abbrev  0x00000000000002dd       0x78 obj/exceptions.o
 .debug_abbrev  0x0000000000000355      0x1e5 obj/stm32f4xx_rcc.o
 .debug_abbrev  0x000000000000053a      0x147 obj/misc.o
 .debug_abbrev  0x0000000000000681      0x13b obj/main.o
 .debug_abbrev  0x00000000000007bc      0x189 obj/stm32f4xx_tim.o
 .debug_abbrev  0x0000000000000945       0x12 obj/startup.o

.debug_aranges  0x0000000000000000      0x108
 .debug_aranges
                0x0000000000000000       0x20 obj/stm32f4xx_gpio.o
 .debug_aranges
                0x0000000000000020       0x20 obj/low_level_init.o
 .debug_aranges
                0x0000000000000040       0x20 obj/exceptions.o
 .debug_aranges
                0x0000000000000060       0x20 obj/stm32f4xx_rcc.o
 .debug_aranges
                0x0000000000000080       0x20 obj/misc.o
 .debug_aranges
                0x00000000000000a0       0x20 obj/main.o
 .debug_aranges
                0x00000000000000c0       0x20 obj/stm32f4xx_tim.o
 .debug_aranges
                0x00000000000000e0       0x28 obj/startup.o

.debug_line     0x0000000000000000      0xbb7
 .debug_line    0x0000000000000000      0x14c obj/stm32f4xx_gpio.o
 .debug_line    0x000000000000014c       0xef obj/low_level_init.o
 .debug_line    0x000000000000023b       0xbd obj/exceptions.o
 .debug_line    0x00000000000002f8      0x229 obj/stm32f4xx_rcc.o
 .debug_line    0x0000000000000521       0xc7 obj/misc.o
 .debug_line    0x00000000000005e8       0xe3 obj/main.o
 .debug_line    0x00000000000006cb      0x47b obj/stm32f4xx_tim.o
 .debug_line    0x0000000000000b46       0x71 obj/startup.o

.debug_str      0x0000000000000000     0x1f22
 .debug_str     0x0000000000000000      0x473 obj/stm32f4xx_gpio.o
                                        0x4af (size before relaxing)
 .debug_str     0x0000000000000473      0x221 obj/low_level_init.o
                                        0x3e7 (size before relaxing)
 .debug_str     0x0000000000000694       0xae obj/exceptions.o
                                        0x240 (size before relaxing)
 .debug_str     0x0000000000000742      0x56f obj/stm32f4xx_rcc.o
                                        0x85c (size before relaxing)
 .debug_str     0x0000000000000cb1      0x19d obj/misc.o
                                        0x3e5 (size before relaxing)
 .debug_str     0x0000000000000e4e      0x683 obj/main.o
                                        0x907 (size before relaxing)
 .debug_str     0x00000000000014d1      0xa51 obj/stm32f4xx_tim.o
                                        0xddc (size before relaxing)

.comment        0x0000000000000000       0x38
 .comment       0x0000000000000000       0x38 obj/stm32f4xx_gpio.o
                                         0x39 (size before relaxing)
 .comment       0x0000000000000038       0x39 obj/low_level_init.o
 .comment       0x0000000000000038       0x39 obj/exceptions.o
 .comment       0x0000000000000038       0x39 obj/stm32f4xx_rcc.o
 .comment       0x0000000000000038       0x39 obj/misc.o
 .comment       0x0000000000000038       0x39 obj/main.o
 .comment       0x0000000000000038       0x39 obj/stm32f4xx_tim.o

.ARM.attributes
                0x0000000000000000       0x37
 .ARM.attributes
                0x0000000000000000       0x39 obj/stm32f4xx_gpio.o
 .ARM.attributes
                0x0000000000000039       0x39 obj/low_level_init.o
 .ARM.attributes
                0x0000000000000072       0x39 obj/exceptions.o
 .ARM.attributes
                0x00000000000000ab       0x39 obj/stm32f4xx_rcc.o
 .ARM.attributes
                0x00000000000000e4       0x39 obj/misc.o
 .ARM.attributes
                0x000000000000011d       0x39 obj/main.o
 .ARM.attributes
                0x0000000000000156       0x39 obj/stm32f4xx_tim.o
 .ARM.attributes
                0x000000000000018f       0x21 obj/startup.o

.debug_frame    0x0000000000000000     0x1ab4
 .debug_frame   0x0000000000000000      0x23c obj/stm32f4xx_gpio.o
 .debug_frame   0x000000000000023c       0x7c obj/low_level_init.o
 .debug_frame   0x00000000000002b8      0x110 obj/exceptions.o
 .debug_frame   0x00000000000003c8      0x6d4 obj/stm32f4xx_rcc.o
 .debug_frame   0x0000000000000a9c       0xd8 obj/misc.o
 .debug_frame   0x0000000000000b74       0xec obj/main.o
 .debug_frame   0x0000000000000c60      0xe54 obj/stm32f4xx_tim.o

.debug_ranges   0x0000000000000000       0x20
 .debug_ranges  0x0000000000000000       0x20 obj/startup.o
